target datalayout = "e-m:e-p270:32:32-p271:32:32-p272:64:64-i64:64-i128:128-f80:128-n8:16:32:64-S128"
target triple = "x86_64-pc-linux-gnu"

%struct.Dec_Graph_t_ = type { i32, i32, i32, i32, ptr, %struct.Dec_Edge_t_ }
%struct.Dec_Edge_t_ = type { i32 }
%struct.Dec_Node_t_ = type { %struct.Dec_Edge_t_, %struct.Dec_Edge_t_, %union.anon.0, i32 }
%union.anon.0 = type { ptr }

@__const.Dec_GraphDeriveTruth.uTruths = private unnamed_addr constant [5 x i32] [i32 -1431655766, i32 -858993460, i32 -252645136, i32 -16711936, i32 -65536], align 16

; Function Attrs: inlinehint nounwind uwtable
define internal i32 @Dec_GraphNodeInt(ptr noundef %0, ptr noundef %1) #2 {
  %3 = alloca ptr, align 8
  %4 = alloca ptr, align 8
  store ptr %0, ptr %3, align 8, !tbaa !8
  store ptr %1, ptr %4, align 8, !tbaa !10
  %5 = load ptr, ptr %4, align 8, !tbaa !10
  %6 = load ptr, ptr %3, align 8, !tbaa !8
  %7 = getelementptr inbounds nuw %struct.Dec_Graph_t_, ptr %6, i32 0, i32 4
  %8 = load ptr, ptr %7, align 8, !tbaa !42
  %9 = ptrtoint ptr %5 to i64
  %10 = ptrtoint ptr %8 to i64
  %11 = sub i64 %9, %10
  %12 = sdiv exact i64 %11, 24
  %13 = trunc i64 %12 to i32
  ret i32 %13
}

; Function Attrs: inlinehint nounwind uwtable
define internal ptr @Dec_GraphVar(ptr noundef %0) #2 {
  %2 = alloca ptr, align 8
  store ptr %0, ptr %2, align 8, !tbaa !8
  %3 = load ptr, ptr %2, align 8, !tbaa !8
  %4 = load ptr, ptr %2, align 8, !tbaa !8
  %5 = getelementptr inbounds nuw %struct.Dec_Graph_t_, ptr %4, i32 0, i32 5
  %6 = load i32, ptr %5, align 8
  %7 = lshr i32 %6, 1
  %8 = and i32 %7, 1073741823
  %9 = call ptr @Dec_GraphNode(ptr noundef %3, i32 noundef %8)
  ret ptr %9
}

; Function Attrs: inlinehint nounwind uwtable
define internal ptr @Dec_GraphNode(ptr noundef %0, i32 noundef %1) #2 {
  %3 = alloca ptr, align 8
  %4 = alloca i32, align 4
  store ptr %0, ptr %3, align 8, !tbaa !8
  store i32 %1, ptr %4, align 4, !tbaa !30
  %5 = load ptr, ptr %3, align 8, !tbaa !8
  %6 = getelementptr inbounds nuw %struct.Dec_Graph_t_, ptr %5, i32 0, i32 4
  %7 = load ptr, ptr %6, align 8, !tbaa !42
  %8 = load i32, ptr %4, align 4, !tbaa !30
  %9 = sext i32 %8 to i64
  %10 = getelementptr inbounds %struct.Dec_Node_t_, ptr %7, i64 %9
  ret ptr %10
}

; Function Attrs: inlinehint nounwind uwtable
define internal i32 @Dec_GraphVarInt(ptr noundef %0) #2 {
  %2 = alloca ptr, align 8
  store ptr %0, ptr %2, align 8, !tbaa !8
  %3 = load ptr, ptr %2, align 8, !tbaa !8
  %4 = load ptr, ptr %2, align 8, !tbaa !8
  %5 = call ptr @Dec_GraphVar(ptr noundef %4)
  %6 = call i32 @Dec_GraphNodeInt(ptr noundef %3, ptr noundef %5)
  ret i32 %6
}

; Function Attrs: inlinehint nounwind uwtable
define internal i32 @Dec_GraphIsVar(ptr noundef %0) #2 {
  %2 = alloca ptr, align 8
  store ptr %0, ptr %2, align 8, !tbaa !8
  %3 = load ptr, ptr %2, align 8, !tbaa !8
  %4 = getelementptr inbounds nuw %struct.Dec_Graph_t_, ptr %3, i32 0, i32 5
  %5 = load i32, ptr %4, align 8
  %6 = lshr i32 %5, 1
  %7 = and i32 %6, 1073741823
  %8 = load ptr, ptr %2, align 8, !tbaa !8
  %9 = getelementptr inbounds nuw %struct.Dec_Graph_t_, ptr %8, i32 0, i32 1
  %10 = load i32, ptr %9, align 4, !tbaa !31
  %11 = icmp ult i32 %7, %10
  %12 = zext i1 %11 to i32
  ret i32 %12
}

; Function Attrs: inlinehint nounwind uwtable
define internal i32 @Dec_GraphIsComplement(ptr noundef %0) #2 {
  %2 = alloca ptr, align 8
  store ptr %0, ptr %2, align 8, !tbaa !8
  %3 = load ptr, ptr %2, align 8, !tbaa !8
  %4 = getelementptr inbounds nuw %struct.Dec_Graph_t_, ptr %3, i32 0, i32 5
  %5 = load i32, ptr %4, align 8
  %6 = and i32 %5, 1
  ret i32 %6
}

; Function Attrs: inlinehint nounwind uwtable
define internal i32 @Dec_GraphIsConst(ptr noundef %0) #2 {
  %2 = alloca ptr, align 8
  store ptr %0, ptr %2, align 8, !tbaa !8
  %3 = load ptr, ptr %2, align 8, !tbaa !8
  %4 = getelementptr inbounds nuw %struct.Dec_Graph_t_, ptr %3, i32 0, i32 0
  %5 = load i32, ptr %4, align 8, !tbaa !41
  ret i32 %5
}

; Function Attrs: nounwind uwtable
define i32 @Dec_GraphDeriveTruth(ptr noundef %0) #0 {
  %2 = alloca i32, align 4
  %3 = alloca ptr, align 8
  %4 = alloca [5 x i32], align 16
  %5 = alloca i32, align 4
  %6 = alloca i32, align 4
  %7 = alloca i32, align 4
  %8 = alloca ptr, align 8
  %9 = alloca i32, align 4
  %10 = alloca i32, align 4
  store ptr %0, ptr %3, align 8, !tbaa !8
  call void @llvm.lifetime.start.p0(i64 20, ptr %4) #5
  call void @llvm.memcpy.p0.p0.i64(ptr align 16 %4, ptr align 16 @__const.Dec_GraphDeriveTruth.uTruths, i64 20, i1 false)
  call void @llvm.lifetime.start.p0(i64 4, ptr %5) #5
  store i32 0, ptr %5, align 4, !tbaa !30
  call void @llvm.lifetime.start.p0(i64 4, ptr %6) #5
  call void @llvm.lifetime.start.p0(i64 4, ptr %7) #5
  call void @llvm.lifetime.start.p0(i64 8, ptr %8) #5
  call void @llvm.lifetime.start.p0(i64 4, ptr %9) #5
  %11 = load ptr, ptr %3, align 8, !tbaa !8
  %12 = call i32 @Dec_GraphIsConst(ptr noundef %11)
  %13 = icmp ne i32 %12, 0
  br i1 %13, label %14, label %19

14:                                               ; preds = %1
  %15 = load ptr, ptr %3, align 8, !tbaa !8
  %16 = call i32 @Dec_GraphIsComplement(ptr noundef %15)
  %17 = icmp ne i32 %16, 0
  %18 = select i1 %17, i32 0, i32 -1
  store i32 %18, ptr %2, align 4
  store i32 1, ptr %10, align 4
  br label %152

19:                                               ; preds = %1
  %20 = load ptr, ptr %3, align 8, !tbaa !8
  %21 = call i32 @Dec_GraphIsVar(ptr noundef %20)
  %22 = icmp ne i32 %21, 0
  br i1 %22, label %23, label %42

23:                                               ; preds = %19
  %24 = load ptr, ptr %3, align 8, !tbaa !8
  %25 = call i32 @Dec_GraphIsComplement(ptr noundef %24)
  %26 = icmp ne i32 %25, 0
  br i1 %26, label %27, label %34

27:                                               ; preds = %23
  %28 = load ptr, ptr %3, align 8, !tbaa !8
  %29 = call i32 @Dec_GraphVarInt(ptr noundef %28)
  %30 = sext i32 %29 to i64
  %31 = getelementptr inbounds [5 x i32], ptr %4, i64 0, i64 %30
  %32 = load i32, ptr %31, align 4, !tbaa !30
  %33 = xor i32 %32, -1
  br label %40

34:                                               ; preds = %23
  %35 = load ptr, ptr %3, align 8, !tbaa !8
  %36 = call i32 @Dec_GraphVarInt(ptr noundef %35)
  %37 = sext i32 %36 to i64
  %38 = getelementptr inbounds [5 x i32], ptr %4, i64 0, i64 %37
  %39 = load i32, ptr %38, align 4, !tbaa !30
  br label %40

40:                                               ; preds = %34, %27
  %41 = phi i32 [ %33, %27 ], [ %39, %34 ]
  store i32 %41, ptr %2, align 4
  store i32 1, ptr %10, align 4
  br label %152

42:                                               ; preds = %19
  store i32 0, ptr %9, align 4, !tbaa !30
  br label %43

43:                                               ; preds = %64, %42
  %44 = load i32, ptr %9, align 4, !tbaa !30
  %45 = load ptr, ptr %3, align 8, !tbaa !8
  %46 = getelementptr inbounds nuw %struct.Dec_Graph_t_, ptr %45, i32 0, i32 1
  %47 = load i32, ptr %46, align 4, !tbaa !31
  %48 = icmp slt i32 %44, %47
  br i1 %48, label %49, label %53

49:                                               ; preds = %43
  %50 = load ptr, ptr %3, align 8, !tbaa !8
  %51 = load i32, ptr %9, align 4, !tbaa !30
  %52 = call ptr @Dec_GraphNode(ptr noundef %50, i32 noundef %51)
  store ptr %52, ptr %8, align 8, !tbaa !10
  br label %53

53:                                               ; preds = %49, %43
  %54 = phi i1 [ false, %43 ], [ true, %49 ]
  br i1 %54, label %55, label %67

55:                                               ; preds = %53
  %56 = load i32, ptr %9, align 4, !tbaa !30
  %57 = sext i32 %56 to i64
  %58 = getelementptr inbounds [5 x i32], ptr %4, i64 0, i64 %57
  %59 = load i32, ptr %58, align 4, !tbaa !30
  %60 = zext i32 %59 to i64
  %61 = inttoptr i64 %60 to ptr
  %62 = load ptr, ptr %8, align 8, !tbaa !10
  %63 = getelementptr inbounds nuw %struct.Dec_Node_t_, ptr %62, i32 0, i32 2
  store ptr %61, ptr %63, align 8, !tbaa !34
  br label %64

64:                                               ; preds = %55
  %65 = load i32, ptr %9, align 4, !tbaa !30
  %66 = add nsw i32 %65, 1
  store i32 %66, ptr %9, align 4, !tbaa !30
  br label %43, !llvm.loop !43

67:                                               ; preds = %53
  %68 = load ptr, ptr %3, align 8, !tbaa !8
  %69 = getelementptr inbounds nuw %struct.Dec_Graph_t_, ptr %68, i32 0, i32 1
  %70 = load i32, ptr %69, align 4, !tbaa !31
  store i32 %70, ptr %9, align 4, !tbaa !30
  br label %71

71:                                               ; preds = %138, %67
  %72 = load i32, ptr %9, align 4, !tbaa !30
  %73 = load ptr, ptr %3, align 8, !tbaa !8
  %74 = getelementptr inbounds nuw %struct.Dec_Graph_t_, ptr %73, i32 0, i32 2
  %75 = load i32, ptr %74, align 8, !tbaa !37
  %76 = icmp slt i32 %72, %75
  br i1 %76, label %77, label %81

77:                                               ; preds = %71
  %78 = load ptr, ptr %3, align 8, !tbaa !8
  %79 = load i32, ptr %9, align 4, !tbaa !30
  %80 = call ptr @Dec_GraphNode(ptr noundef %78, i32 noundef %79)
  store ptr %80, ptr %8, align 8, !tbaa !10
  br label %81

81:                                               ; preds = %77, %71
  %82 = phi i1 [ false, %71 ], [ true, %77 ]
  br i1 %82, label %83, label %141

83:                                               ; preds = %81
  %84 = load ptr, ptr %3, align 8, !tbaa !8
  %85 = load ptr, ptr %8, align 8, !tbaa !10
  %86 = getelementptr inbounds nuw %struct.Dec_Node_t_, ptr %85, i32 0, i32 0
  %87 = load i32, ptr %86, align 8
  %88 = lshr i32 %87, 1
  %89 = and i32 %88, 1073741823
  %90 = call ptr @Dec_GraphNode(ptr noundef %84, i32 noundef %89)
  %91 = getelementptr inbounds nuw %struct.Dec_Node_t_, ptr %90, i32 0, i32 2
  %92 = load ptr, ptr %91, align 8, !tbaa !34
  %93 = ptrtoint ptr %92 to i64
  %94 = trunc i64 %93 to i32
  store i32 %94, ptr %6, align 4, !tbaa !30
  %95 = load ptr, ptr %3, align 8, !tbaa !8
  %96 = load ptr, ptr %8, align 8, !tbaa !10
  %97 = getelementptr inbounds nuw %struct.Dec_Node_t_, ptr %96, i32 0, i32 1
  %98 = load i32, ptr %97, align 4
  %99 = lshr i32 %98, 1
  %100 = and i32 %99, 1073741823
  %101 = call ptr @Dec_GraphNode(ptr noundef %95, i32 noundef %100)
  %102 = getelementptr inbounds nuw %struct.Dec_Node_t_, ptr %101, i32 0, i32 2
  %103 = load ptr, ptr %102, align 8, !tbaa !34
  %104 = ptrtoint ptr %103 to i64
  %105 = trunc i64 %104 to i32
  store i32 %105, ptr %7, align 4, !tbaa !30
  %106 = load ptr, ptr %8, align 8, !tbaa !10
  %107 = getelementptr inbounds nuw %struct.Dec_Node_t_, ptr %106, i32 0, i32 0
  %108 = load i32, ptr %107, align 8
  %109 = and i32 %108, 1
  %110 = icmp ne i32 %109, 0
  br i1 %110, label %111, label %114

111:                                              ; preds = %83
  %112 = load i32, ptr %6, align 4, !tbaa !30
  %113 = xor i32 %112, -1
  br label %116

114:                                              ; preds = %83
  %115 = load i32, ptr %6, align 4, !tbaa !30
  br label %116

116:                                              ; preds = %114, %111
  %117 = phi i32 [ %113, %111 ], [ %115, %114 ]
  store i32 %117, ptr %6, align 4, !tbaa !30
  %118 = load ptr, ptr %8, align 8, !tbaa !10
  %119 = getelementptr inbounds nuw %struct.Dec_Node_t_, ptr %118, i32 0, i32 1
  %120 = load i32, ptr %119, align 4
  %121 = and i32 %120, 1
  %122 = icmp ne i32 %121, 0
  br i1 %122, label %123, label %126

123:                                              ; preds = %116
  %124 = load i32, ptr %7, align 4, !tbaa !30
  %125 = xor i32 %124, -1
  br label %128

126:                                              ; preds = %116
  %127 = load i32, ptr %7, align 4, !tbaa !30
  br label %128

128:                                              ; preds = %126, %123
  %129 = phi i32 [ %125, %123 ], [ %127, %126 ]
  store i32 %129, ptr %7, align 4, !tbaa !30
  %130 = load i32, ptr %6, align 4, !tbaa !30
  %131 = load i32, ptr %7, align 4, !tbaa !30
  %132 = and i32 %130, %131
  store i32 %132, ptr %5, align 4, !tbaa !30
  %133 = load i32, ptr %5, align 4, !tbaa !30
  %134 = zext i32 %133 to i64
  %135 = inttoptr i64 %134 to ptr
  %136 = load ptr, ptr %8, align 8, !tbaa !10
  %137 = getelementptr inbounds nuw %struct.Dec_Node_t_, ptr %136, i32 0, i32 2
  store ptr %135, ptr %137, align 8, !tbaa !34
  br label %138

138:                                              ; preds = %128
  %139 = load i32, ptr %9, align 4, !tbaa !30
  %140 = add nsw i32 %139, 1
  store i32 %140, ptr %9, align 4, !tbaa !30
  br label %71, !llvm.loop !44

141:                                              ; preds = %81
  %142 = load ptr, ptr %3, align 8, !tbaa !8
  %143 = call i32 @Dec_GraphIsComplement(ptr noundef %142)
  %144 = icmp ne i32 %143, 0
  br i1 %144, label %145, label %148

145:                                              ; preds = %141
  %146 = load i32, ptr %5, align 4, !tbaa !30
  %147 = xor i32 %146, -1
  br label %150

148:                                              ; preds = %141
  %149 = load i32, ptr %5, align 4, !tbaa !30
  br label %150

150:                                              ; preds = %148, %145
  %151 = phi i32 [ %147, %145 ], [ %149, %148 ]
  store i32 %151, ptr %2, align 4
  store i32 1, ptr %10, align 4
  br label %152

152:                                              ; preds = %150, %40, %14
  call void @llvm.lifetime.end.p0(i64 4, ptr %9) #5
  call void @llvm.lifetime.end.p0(i64 8, ptr %8) #5
  call void @llvm.lifetime.end.p0(i64 4, ptr %7) #5
  call void @llvm.lifetime.end.p0(i64 4, ptr %6) #5
  call void @llvm.lifetime.end.p0(i64 4, ptr %5) #5
  call void @llvm.lifetime.end.p0(i64 20, ptr %4) #5
  %153 = load i32, ptr %2, align 4
  ret i32 %153
}